; Function Attrs: nounwind uwtable
define i32 @php_pcre2_substring_length_byname(ptr nocapture noundef readonly %0, ptr noundef %1, ptr noundef writeonly %2) local_unnamed_addr #0 {
  %4 = getelementptr inbounds i8, ptr %0, i64 96
  %5 = load i8, ptr %4, align 8
  %6 = icmp eq i8 %5, 1
  br i1 %6, label %php_pcre2_substring_length_bynumber.exit, label %7

7:                                                ; preds = %3
  %8 = getelementptr inbounds i8, ptr %0, i64 24
  %9 = load ptr, ptr %8, align 8
  %10 = getelementptr inbounds i8, ptr %9, i64 134
  %11 = load i16, ptr %10, align 2
  %12 = getelementptr inbounds i8, ptr %9, i64 132
  %13 = load i16, ptr %12, align 4
  %.ptr53.i = getelementptr inbounds i8, ptr %9, i64 136
  %.not58.i = icmp eq i16 %11, 0
  br i1 %.not58.i, label %php_pcre2_substring_length_bynumber.exit, label %.lr.ph.i

.lr.ph.i:                                         ; preds = %7
  %14 = zext i16 %13 to i32
  br label %15

15:                                               ; preds = %43, %.lr.ph.i
  %.04657.i = phi i16 [ 0, %.lr.ph.i ], [ %.1.i, %43 ]
  %.04756.i = phi i16 [ %11, %.lr.ph.i ], [ %.148.i, %43 ]
  %16 = zext i16 %.04657.i to i32
  %17 = zext i16 %.04756.i to i32
  %18 = add nuw nsw i32 %17, %16
  %19 = lshr i32 %18, 1
  %20 = mul nuw nsw i32 %19, %14
  %narrow.i = add nuw i32 %20, 136
  %.add.i = zext i32 %narrow.i to i64
  %.ptr54.i = getelementptr inbounds i8, ptr %9, i64 %.add.i
  %21 = getelementptr inbounds i8, ptr %.ptr54.i, i64 2
  %22 = tail call i32 @_pcre2_strcmp_8(ptr noundef %1, ptr noundef nonnull %21) #6
  %23 = icmp eq i32 %22, 0
  br i1 %23, label %24, label %43

24:                                               ; preds = %15
  %25 = load i16, ptr %10, align 2
  %26 = zext i16 %25 to i32
  %27 = add nsw i32 %26, -1
  %28 = mul nsw i32 %27, %14
  %29 = sext i32 %28 to i64
  %30 = getelementptr inbounds i8, ptr %.ptr53.i, i64 %29
  %31 = zext i16 %13 to i64
  %invariant.gep.i = getelementptr i8, ptr %9, i64 2
  br label %32

32:                                               ; preds = %34, %24
  %.045.idx.i = phi i64 [ %.add.i, %24 ], [ %.045.add.i, %34 ]
  %33 = icmp sgt i64 %.045.idx.i, 136
  br i1 %33, label %34, label %36

34:                                               ; preds = %32
  %.045.add.i = sub nsw i64 %.045.idx.i, %31
  %gep.i = getelementptr i8, ptr %invariant.gep.i, i64 %.045.add.i
  %35 = tail call i32 @_pcre2_strcmp_8(ptr noundef %1, ptr noundef nonnull %gep.i) #6
  %.not.i = icmp eq i32 %35, 0
  br i1 %.not.i, label %32, label %36

36:                                               ; preds = %34, %32
  %.045.ptr.le.i = getelementptr inbounds i8, ptr %9, i64 %.045.idx.i
  br label %37

37:                                               ; preds = %39, %36
  %.044.i = phi ptr [ %.ptr54.i, %36 ], [ %40, %39 ]
  %38 = icmp ult ptr %.044.i, %30
  br i1 %38, label %39, label %php_pcre2_substring_nametable_scan.exit

39:                                               ; preds = %37
  %40 = getelementptr inbounds i8, ptr %.044.i, i64 %31
  %41 = getelementptr inbounds i8, ptr %40, i64 2
  %42 = tail call i32 @_pcre2_strcmp_8(ptr noundef %1, ptr noundef nonnull %41) #6
  %.not55.i = icmp eq i32 %42, 0
  br i1 %.not55.i, label %37, label %php_pcre2_substring_nametable_scan.exit

43:                                               ; preds = %15
  %44 = trunc i32 %19 to i16
  %45 = icmp sgt i32 %22, 0
  %46 = add i16 %44, 1
  %.148.i = select i1 %45, i16 %.04756.i, i16 %44
  %.1.i = select i1 %45, i16 %46, i16 %.04657.i
  %47 = icmp ugt i16 %.148.i, %.1.i
  br i1 %47, label %15, label %php_pcre2_substring_length_bynumber.exit

php_pcre2_substring_nametable_scan.exit:          ; preds = %39, %37
  %.not39 = icmp ugt ptr %.045.ptr.le.i, %.044.i
  br i1 %.not39, label %php_pcre2_substring_length_bynumber.exit, label %.lr.ph

.lr.ph:                                           ; preds = %php_pcre2_substring_nametable_scan.exit
  %48 = getelementptr inbounds i8, ptr %0, i64 98
  %49 = load i16, ptr %48, align 2
  %50 = zext i16 %49 to i32
  %51 = getelementptr inbounds i8, ptr %0, i64 104
  br label %52

52:                                               ; preds = %.lr.ph, %94
  %.01841 = phi ptr [ %.045.ptr.le.i, %.lr.ph ], [ %95, %94 ]
  %.01940 = phi i32 [ -54, %.lr.ph ], [ %.1, %94 ]
  %53 = load i8, ptr %.01841, align 1
  %54 = zext i8 %53 to i32
  %55 = shl nuw nsw i32 %54, 8
  %56 = getelementptr inbounds i8, ptr %.01841, i64 1
  %57 = load i8, ptr %56, align 1
  %58 = zext i8 %57 to i32
  %59 = or disjoint i32 %55, %58
  %60 = icmp ult i32 %59, %50
  br i1 %60, label %61, label %94

61:                                               ; preds = %52
  %62 = shl nuw nsw i32 %59, 1
  %63 = zext nneg i32 %62 to i64
  %64 = getelementptr inbounds [131072 x i64], ptr %51, i64 0, i64 %63
  %65 = load i64, ptr %64, align 8
  %.not23 = icmp eq i64 %65, -1
  br i1 %.not23, label %94, label %66

66:                                               ; preds = %61
  %67 = getelementptr inbounds i8, ptr %0, i64 100
  %68 = load i32, ptr %67, align 4
  %69 = icmp eq i32 %68, -2
  br i1 %69, label %70, label %71

70:                                               ; preds = %66
  %.not.i25 = icmp eq i32 %59, 0
  br i1 %.not.i25, label %73, label %php_pcre2_substring_length_bynumber.exit

71:                                               ; preds = %66
  %72 = icmp slt i32 %68, 0
  br i1 %72, label %php_pcre2_substring_length_bynumber.exit, label %73

73:                                               ; preds = %71, %70
  %.0.i24 = phi i32 [ %68, %71 ], [ 0, %70 ]
  %74 = load i8, ptr %4, align 8
  %.not38.i = icmp eq i8 %74, 1
  br i1 %.not38.i, label %81, label %75

75:                                               ; preds = %73
  %76 = load ptr, ptr %8, align 8
  %77 = getelementptr inbounds i8, ptr %76, i64 128
  %78 = load i16, ptr %77, align 8
  %79 = zext i16 %78 to i32
  %80 = icmp ugt i32 %59, %79
  br i1 %80, label %php_pcre2_substring_length_bynumber.exit, label %._crit_edge.i

81:                                               ; preds = %73
  %82 = add nsw i32 %.0.i24, -1
  %or.cond.not.i = icmp ult i32 %82, %59
  br i1 %or.cond.not.i, label %php_pcre2_substring_length_bynumber.exit, label %._crit_edge.i

._crit_edge.i:                                    ; preds = %81, %75
  %83 = or disjoint i32 %62, 1
  %84 = zext nneg i32 %83 to i64
  %85 = getelementptr inbounds [131072 x i64], ptr %51, i64 0, i64 %84
  %86 = load i64, ptr %85, align 8
  %87 = getelementptr inbounds i8, ptr %0, i64 64
  %88 = load i64, ptr %87, align 8
  %89 = icmp ugt i64 %65, %88
  %90 = icmp ugt i64 %86, %88
  %or.cond44.i = select i1 %89, i1 true, i1 %90
  br i1 %or.cond44.i, label %php_pcre2_substring_length_bynumber.exit, label %91

91:                                               ; preds = %._crit_edge.i
  %.not43.i = icmp eq ptr %2, null
  br i1 %.not43.i, label %php_pcre2_substring_length_bynumber.exit, label %92

92:                                               ; preds = %91
  %93 = tail call i64 @llvm.usub.sat.i64(i64 %86, i64 %65)
  store i64 %93, ptr %2, align 8
  br label %php_pcre2_substring_length_bynumber.exit

94:                                               ; preds = %61, %52
  %.1 = phi i32 [ %.01940, %52 ], [ -55, %61 ]
  %95 = getelementptr inbounds i8, ptr %.01841, i64 %31
  %.not = icmp ugt ptr %95, %.044.i
  br i1 %.not, label %php_pcre2_substring_length_bynumber.exit, label %52

php_pcre2_substring_length_bynumber.exit:         ; preds = %43, %94, %php_pcre2_substring_nametable_scan.exit, %7, %92, %91, %._crit_edge.i, %81, %75, %71, %70, %3
  %.0 = phi i32 [ -41, %3 ], [ -2, %70 ], [ %68, %71 ], [ -49, %75 ], [ -55, %81 ], [ -67, %._crit_edge.i ], [ 0, %92 ], [ 0, %91 ], [ -49, %7 ], [ -54, %php_pcre2_substring_nametable_scan.exit ], [ %.1, %94 ], [ -49, %43 ]
  ret i32 %.0
}